; Function Attrs: mustprogress nounwind uwtable
define internal fastcc void @_ZN12_GLOBAL__N_117conv_rewriter_cfgD2Ev(ptr nocapture noundef nonnull readonly align 8 dereferenceable(48) %this) unnamed_addr #4 align 2 personality ptr @__gxx_personality_v0 {
entry:
  %m_pinned = getelementptr inbounds i8, ptr %this, i64 32
  %m_nodes.i.i = getelementptr inbounds i8, ptr %this, i64 40
  %0 = load ptr, ptr %m_nodes.i.i, align 8
  %cmp.i.i.i = icmp eq ptr %0, null
  br i1 %cmp.i.i.i, label %_ZN10ref_vectorI4expr11ast_managerED2Ev.exit, label %_ZNK6vectorIP4exprLb0EjE4sizeEv.exit.i.i

_ZNK6vectorIP4exprLb0EjE4sizeEv.exit.i.i:         ; preds = %entry
  %arrayidx.i.i.i = getelementptr inbounds i8, ptr %0, i64 -4
  %1 = load i32, ptr %arrayidx.i.i.i, align 4
  %2 = zext i32 %1 to i64
  %add.ptr.i.i = getelementptr inbounds ptr, ptr %0, i64 %2
  %cmp3.i.not.i.i = icmp eq i32 %1, 0
  br i1 %cmp3.i.not.i.i, label %if.then.i.i.i.i.i, label %for.body.i.i.i

for.body.i.i.i:                                   ; preds = %_ZNK6vectorIP4exprLb0EjE4sizeEv.exit.i.i, %_ZN15ref_vector_coreI4expr19ref_manager_wrapperIS0_11ast_managerEE7dec_refEPS0_.exit.i.i.i
  %it.04.i.i.i = phi ptr [ %incdec.ptr.i.i.i, %_ZN15ref_vector_coreI4expr19ref_manager_wrapperIS0_11ast_managerEE7dec_refEPS0_.exit.i.i.i ], [ %0, %_ZNK6vectorIP4exprLb0EjE4sizeEv.exit.i.i ]
  %3 = load ptr, ptr %it.04.i.i.i, align 8
  %4 = load ptr, ptr %m_pinned, align 8
  %tobool.not.i.i.i.i.i.i = icmp eq ptr %3, null
  br i1 %tobool.not.i.i.i.i.i.i, label %_ZN15ref_vector_coreI4expr19ref_manager_wrapperIS0_11ast_managerEE7dec_refEPS0_.exit.i.i.i, label %if.then.i.i.i.i.i.i

if.then.i.i.i.i.i.i:                              ; preds = %for.body.i.i.i
  %m_ref_count.i.i.i.i.i.i.i = getelementptr inbounds i8, ptr %3, i64 8
  %5 = load i32, ptr %m_ref_count.i.i.i.i.i.i.i, align 4
  %dec.i.i.i.i.i.i.i = add i32 %5, -1
  store i32 %dec.i.i.i.i.i.i.i, ptr %m_ref_count.i.i.i.i.i.i.i, align 4
  %cmp.i.i.i.i.i.i = icmp eq i32 %dec.i.i.i.i.i.i.i, 0
  br i1 %cmp.i.i.i.i.i.i, label %if.then2.i.i.i.i.i.i, label %_ZN15ref_vector_coreI4expr19ref_manager_wrapperIS0_11ast_managerEE7dec_refEPS0_.exit.i.i.i

if.then2.i.i.i.i.i.i:                             ; preds = %if.then.i.i.i.i.i.i
  invoke void @_ZN11ast_manager11delete_nodeEP3ast(ptr noundef nonnull align 8 dereferenceable(976) %4, ptr noundef nonnull %3)
          to label %_ZN15ref_vector_coreI4expr19ref_manager_wrapperIS0_11ast_managerEE7dec_refEPS0_.exit.i.i.i unwind label %terminate.lpad.i.i

_ZN15ref_vector_coreI4expr19ref_manager_wrapperIS0_11ast_managerEE7dec_refEPS0_.exit.i.i.i: ; preds = %if.then2.i.i.i.i.i.i, %if.then.i.i.i.i.i.i, %for.body.i.i.i
  %incdec.ptr.i.i.i = getelementptr inbounds i8, ptr %it.04.i.i.i, i64 8
  %cmp.i1.i.i = icmp ult ptr %incdec.ptr.i.i.i, %add.ptr.i.i
  br i1 %cmp.i1.i.i, label %for.body.i.i.i, label %invoke.cont8.i.i, !llvm.loop !17

invoke.cont8.i.i:                                 ; preds = %_ZN15ref_vector_coreI4expr19ref_manager_wrapperIS0_11ast_managerEE7dec_refEPS0_.exit.i.i.i
  %.pre.i.i = load ptr, ptr %m_nodes.i.i, align 8
  %tobool.not.i.i.i.i.i = icmp eq ptr %.pre.i.i, null
  br i1 %tobool.not.i.i.i.i.i, label %_ZN10ref_vectorI4expr11ast_managerED2Ev.exit, label %if.then.i.i.i.i.i

if.then.i.i.i.i.i:                                ; preds = %invoke.cont8.i.i, %_ZNK6vectorIP4exprLb0EjE4sizeEv.exit.i.i
  %6 = phi ptr [ %.pre.i.i, %invoke.cont8.i.i ], [ %0, %_ZNK6vectorIP4exprLb0EjE4sizeEv.exit.i.i ]
  %add.ptr.i.i.i.i.i.i = getelementptr inbounds i8, ptr %6, i64 -8
  invoke void @_ZN6memory10deallocateEPv(ptr noundef nonnull %add.ptr.i.i.i.i.i.i)
          to label %_ZN10ref_vectorI4expr11ast_managerED2Ev.exit unwind label %terminate.lpad.i.i.i.i

terminate.lpad.i.i.i.i:                           ; preds = %if.then.i.i.i.i.i
  %7 = landingpad { ptr, i32 }
          catch ptr null
  %8 = extractvalue { ptr, i32 } %7, 0
  tail call void @__clang_call_terminate(ptr %8) #17
  unreachable

terminate.lpad.i.i:                               ; preds = %if.then2.i.i.i.i.i.i
  %9 = landingpad { ptr, i32 }
          catch ptr null
  %10 = extractvalue { ptr, i32 } %9, 0
  tail call void @__clang_call_terminate(ptr %10) #17
  unreachable

_ZN10ref_vectorI4expr11ast_managerED2Ev.exit:     ; preds = %entry, %invoke.cont8.i.i, %if.then.i.i.i.i.i
  ret void
}